target datalayout = "e-m:e-p270:32:32-p271:32:32-p272:64:64-i64:64-i128:128-f80:128-n8:16:32:64-S128"
target triple = "x86_64-pc-linux-gnu"

@.str.388 = private unnamed_addr constant [29 x i8] c"To call IM_DEBUG_BREAK() %s:\00", align 1
@.str.389 = private unnamed_addr constant [35 x i8] c"- Press 'Pause/Break' on keyboard.\00", align 1
@.str.390 = private unnamed_addr constant [121 x i8] c"- Press 'Pause/Break' on keyboard.\0A- or Click (may alter focus/active id).\0A- or navigate using keyboard and press space.\00", align 1
@.str.391 = private unnamed_addr constant [122 x i8] c"Choose one way that doesn't interfere with what you are trying to debug!\0AYou need a debugger attached or this will crash!\00", align 1

; Function Attrs: mustprogress uwtable
define dso_local void @_ZN5ImGui10EndTooltipEv() #0 {
  call void @_ZN5ImGui3EndEv()
  ret void
}

; Function Attrs: mustprogress uwtable
define dso_local noundef zeroext i1 @_ZN5ImGui16BeginItemTooltipEv() #0 {
  %1 = alloca i1, align 1
  %2 = call noundef zeroext i1 @_ZN5ImGui13IsItemHoveredEi(i32 noundef 4096)
  br i1 %2, label %4, label %3

3:                                                ; preds = %0
  store i1 false, ptr %1, align 1
  br label %6

4:                                                ; preds = %0
  %5 = call noundef zeroext i1 @_ZN5ImGui14BeginTooltipExEii(i32 noundef 0, i32 noundef 0)
  store i1 %5, ptr %1, align 1
  br label %6

6:                                                ; preds = %4, %3
  %7 = load i1, ptr %1, align 1
  ret i1 %7
}

; Function Attrs: mustprogress uwtable
define dso_local void @_ZN5ImGui23DebugBreakButtonTooltipEbPKc(i1 noundef zeroext %0, ptr noundef %1) #0 {
  %3 = alloca i8, align 1
  %4 = alloca ptr, align 8
  %5 = zext i1 %0 to i8
  store i8 %5, ptr %3, align 1, !tbaa !268
  store ptr %1, ptr %4, align 8, !tbaa !254
  %6 = call noundef zeroext i1 @_ZN5ImGui16BeginItemTooltipEv()
  br i1 %6, label %8, label %7

7:                                                ; preds = %2
  br label %13

8:                                                ; preds = %2
  %9 = load ptr, ptr %4, align 8, !tbaa !254
  call void (ptr, ...) @_ZN5ImGui4TextEPKcz(ptr noundef @.str.388, ptr noundef %9)
  call void @_ZN5ImGui9SeparatorEv()
  %10 = load i8, ptr %3, align 1, !tbaa !268, !range !134, !noundef !135
  %11 = trunc i8 %10 to i1
  %12 = select i1 %11, ptr @.str.389, ptr @.str.390
  call void @_ZN5ImGui15TextUnformattedEPKcS1_(ptr noundef %12, ptr noundef null)
  call void @_ZN5ImGui9SeparatorEv()
  call void @_ZN5ImGui15TextUnformattedEPKcS1_(ptr noundef @.str.391, ptr noundef null)
  call void @_ZN5ImGui10EndTooltipEv()
  br label %13

13:                                               ; preds = %8, %7
  ret void
}