; Function Attrs: mustprogress uwtable
define dso_local void @_ZN5ImGui23DebugBreakButtonTooltipEbPKc(i1 noundef zeroext %0, ptr noundef %1) local_unnamed_addr #0 {
  %3 = tail call noundef zeroext i1 @_ZN5ImGui13IsItemHoveredEi(i32 noundef 4096)
  br i1 %3, label %4, label %_ZN5ImGui16BeginItemTooltipEv.exit

4:                                                ; preds = %2
  %5 = tail call noundef zeroext i1 @_ZN5ImGui14BeginTooltipExEii(i32 noundef 0, i32 noundef 0)
  tail call void (ptr, ...) @_ZN5ImGui4TextEPKcz(ptr noundef nonnull @.str.388, ptr noundef %1)
  tail call void @_ZN5ImGui9SeparatorEv()
  %6 = select i1 %0, ptr @.str.389, ptr @.str.390
  tail call void @_ZN5ImGui15TextUnformattedEPKcS1_(ptr noundef nonnull %6, ptr noundef null)
  tail call void @_ZN5ImGui9SeparatorEv()
  tail call void @_ZN5ImGui15TextUnformattedEPKcS1_(ptr noundef nonnull @.str.391, ptr noundef null)
  tail call void @_ZN5ImGui3EndEv()
  br label %_ZN5ImGui16BeginItemTooltipEv.exit

_ZN5ImGui16BeginItemTooltipEv.exit:               ; preds = %2, %4
  ret void
}